; Function Attrs: nounwind uwtable
define nonnull ptr @l___private_Lean_Meta_Tactic_Grind_SimpUtil_0__Lean_Meta_Grind_isBoolEqTarget___boxed(ptr noundef %0) local_unnamed_addr #0 {
  %2 = load ptr, ptr @l___private_Lean_Meta_Tactic_Grind_SimpUtil_0__Lean_Meta_Grind_isBoolEqTarget___closed__3, align 8, !tbaa !4
  %3 = tail call zeroext i8 @lean_name_eq(ptr noundef %0, ptr noundef %2) #4
  %4 = icmp eq i8 %3, 0
  br i1 %4, label %5, label %l___private_Lean_Meta_Tactic_Grind_SimpUtil_0__Lean_Meta_Grind_isBoolEqTarget.exit

5:                                                ; preds = %1
  %6 = load ptr, ptr @l___private_Lean_Meta_Tactic_Grind_SimpUtil_0__Lean_Meta_Grind_isBoolEqTarget___closed__5, align 8, !tbaa !4
  %7 = tail call zeroext i8 @lean_name_eq(ptr noundef %0, ptr noundef %6) #4
  %8 = icmp eq i8 %7, 0
  br i1 %8, label %9, label %l___private_Lean_Meta_Tactic_Grind_SimpUtil_0__Lean_Meta_Grind_isBoolEqTarget.exit

9:                                                ; preds = %5
  %10 = load ptr, ptr @l___private_Lean_Meta_Tactic_Grind_SimpUtil_0__Lean_Meta_Grind_isBoolEqTarget___closed__7, align 8, !tbaa !4
  %11 = tail call zeroext i8 @lean_name_eq(ptr noundef %0, ptr noundef %10) #4
  %12 = icmp eq i8 %11, 0
  br i1 %12, label %13, label %l___private_Lean_Meta_Tactic_Grind_SimpUtil_0__Lean_Meta_Grind_isBoolEqTarget.exit

13:                                               ; preds = %9
  %14 = load ptr, ptr @l___private_Lean_Meta_Tactic_Grind_SimpUtil_0__Lean_Meta_Grind_isBoolEqTarget___closed__10, align 8, !tbaa !4
  %15 = tail call zeroext i8 @lean_name_eq(ptr noundef %0, ptr noundef %14) #4
  %16 = icmp eq i8 %15, 0
  br i1 %16, label %17, label %l___private_Lean_Meta_Tactic_Grind_SimpUtil_0__Lean_Meta_Grind_isBoolEqTarget.exit

17:                                               ; preds = %13
  %18 = load ptr, ptr @l___private_Lean_Meta_Tactic_Grind_SimpUtil_0__Lean_Meta_Grind_isBoolEqTarget___closed__13, align 8, !tbaa !4
  %19 = tail call zeroext i8 @lean_name_eq(ptr noundef %0, ptr noundef %18) #4
  %20 = zext i8 %19 to i64
  %21 = shl nuw nsw i64 %20, 1
  %22 = or disjoint i64 %21, 1
  br label %l___private_Lean_Meta_Tactic_Grind_SimpUtil_0__Lean_Meta_Grind_isBoolEqTarget.exit

l___private_Lean_Meta_Tactic_Grind_SimpUtil_0__Lean_Meta_Grind_isBoolEqTarget.exit: ; preds = %1, %5, %9, %13, %17
  %.3.i = phi i64 [ %22, %17 ], [ 3, %13 ], [ 3, %9 ], [ 3, %5 ], [ 3, %1 ]
  %23 = ptrtoint ptr %0 to i64
  %24 = and i64 %23, 1
  %.not = icmp eq i64 %24, 0
  br i1 %.not, label %25, label %lean_dec.exit

25:                                               ; preds = %l___private_Lean_Meta_Tactic_Grind_SimpUtil_0__Lean_Meta_Grind_isBoolEqTarget.exit
  %26 = load i32, ptr %0, align 4, !tbaa !8
  %27 = icmp sgt i32 %26, 1
  br i1 %27, label %28, label %30, !prof !11

28:                                               ; preds = %25
  %29 = add nsw i32 %26, -1
  store i32 %29, ptr %0, align 4, !tbaa !8
  br label %lean_dec.exit

30:                                               ; preds = %25
  %.not.i = icmp eq i32 %26, 0
  br i1 %.not.i, label %lean_dec.exit, label %31

31:                                               ; preds = %30
  tail call void @lean_dec_ref_cold(ptr noundef nonnull %0) #4
  br label %lean_dec.exit

lean_dec.exit:                                    ; preds = %31, %30, %28, %l___private_Lean_Meta_Tactic_Grind_SimpUtil_0__Lean_Meta_Grind_isBoolEqTarget.exit
  %32 = inttoptr i64 %.3.i to ptr
  ret ptr %32
}